; Function Attrs: nounwind uwtable
define void @Vec_IntCopySkip(ptr noundef readonly captures(none) %0, i32 noundef %1, ptr noundef captures(none) initializes((4, 8)) %2) local_unnamed_addr #0 {
  %4 = getelementptr inbounds nuw i8, ptr %2, i64 4
  store i32 0, ptr %4, align 4, !tbaa !3
  %5 = getelementptr i8, ptr %0, i64 4
  %.val9 = load i32, ptr %5, align 4, !tbaa !3
  %6 = icmp sgt i32 %.val9, 0
  br i1 %6, label %.lr.ph, label %._crit_edge

.lr.ph:                                           ; preds = %3
  %7 = getelementptr i8, ptr %0, i64 8
  %.phi.trans.insert.i = getelementptr inbounds nuw i8, ptr %2, i64 8
  %8 = zext i32 %1 to i64
  br label %9

9:                                                ; preds = %.lr.ph, %41
  %.val12 = phi i32 [ %.val9, %.lr.ph ], [ %.val, %41 ]
  %indvars.iv = phi i64 [ 0, %.lr.ph ], [ %indvars.iv.next, %41 ]
  %.not = icmp eq i64 %indvars.iv, %8
  br i1 %.not, label %41, label %10

10:                                               ; preds = %9
  %.val8 = load ptr, ptr %7, align 8, !tbaa !11
  %11 = getelementptr inbounds nuw i32, ptr %.val8, i64 %indvars.iv
  %12 = load i32, ptr %11, align 4, !tbaa !16
  %13 = load i32, ptr %4, align 4, !tbaa !3
  %14 = load i32, ptr %2, align 8, !tbaa !10
  %15 = icmp eq i32 %13, %14
  br i1 %15, label %16, label %.Vec_IntGrow.exit10_crit_edge.i

.Vec_IntGrow.exit10_crit_edge.i:                  ; preds = %10
  %.pre.i = load ptr, ptr %.phi.trans.insert.i, align 8, !tbaa !11
  br label %Vec_IntPush.exit

16:                                               ; preds = %10
  %17 = icmp slt i32 %13, 16
  br i1 %17, label %18, label %25

18:                                               ; preds = %16
  %19 = load ptr, ptr %.phi.trans.insert.i, align 8, !tbaa !11
  %.not9.i.i = icmp eq ptr %19, null
  br i1 %.not9.i.i, label %22, label %20

20:                                               ; preds = %18
  %21 = tail call dereferenceable_or_null(64) ptr @realloc(ptr noundef nonnull %19, i64 noundef 64) #16
  br label %Vec_IntGrow.exit.i

22:                                               ; preds = %18
  %23 = tail call noalias dereferenceable_or_null(64) ptr @malloc(i64 noundef 64) #17
  br label %Vec_IntGrow.exit.i

Vec_IntGrow.exit.i:                               ; preds = %22, %20
  %24 = phi ptr [ %21, %20 ], [ %23, %22 ]
  store ptr %24, ptr %.phi.trans.insert.i, align 8, !tbaa !11
  store i32 16, ptr %2, align 8, !tbaa !10
  br label %Vec_IntPush.exit

25:                                               ; preds = %16
  %26 = shl nuw nsw i32 %13, 1
  %27 = load ptr, ptr %.phi.trans.insert.i, align 8, !tbaa !11
  %.not9.i9.i = icmp eq ptr %27, null
  %28 = zext nneg i32 %26 to i64
  %29 = shl nuw nsw i64 %28, 2
  br i1 %.not9.i9.i, label %32, label %30

30:                                               ; preds = %25
  %31 = tail call ptr @realloc(ptr noundef nonnull %27, i64 noundef %29) #16
  br label %34

32:                                               ; preds = %25
  %33 = tail call noalias ptr @malloc(i64 noundef %29) #17
  br label %34

34:                                               ; preds = %32, %30
  %35 = phi ptr [ %31, %30 ], [ %33, %32 ]
  store ptr %35, ptr %.phi.trans.insert.i, align 8, !tbaa !11
  store i32 %26, ptr %2, align 8, !tbaa !10
  br label %Vec_IntPush.exit

Vec_IntPush.exit:                                 ; preds = %.Vec_IntGrow.exit10_crit_edge.i, %Vec_IntGrow.exit.i, %34
  %36 = phi ptr [ %.pre.i, %.Vec_IntGrow.exit10_crit_edge.i ], [ %35, %34 ], [ %24, %Vec_IntGrow.exit.i ]
  %37 = load i32, ptr %4, align 4, !tbaa !3
  %38 = add nsw i32 %37, 1
  store i32 %38, ptr %4, align 4, !tbaa !3
  %39 = sext i32 %37 to i64
  %40 = getelementptr inbounds i32, ptr %36, i64 %39
  store i32 %12, ptr %40, align 4, !tbaa !16
  %.val.pre = load i32, ptr %5, align 4, !tbaa !3
  br label %41

41:                                               ; preds = %9, %Vec_IntPush.exit
  %.val = phi i32 [ %.val12, %9 ], [ %.val.pre, %Vec_IntPush.exit ]
  %indvars.iv.next = add nuw nsw i64 %indvars.iv, 1
  %42 = sext i32 %.val to i64
  %43 = icmp slt i64 %indvars.iv.next, %42
  br i1 %43, label %9, label %._crit_edge, !llvm.loop !51

._crit_edge:                                      ; preds = %41, %3
  ret void
}